; Function Attrs: nounwind uwtable
define dso_local range(i32 -1, 1) i32 @verifyDumpPayload(ptr noundef %0, i64 noundef %1, ptr noundef writeonly captures(address_is_null) %2) local_unnamed_addr #0 {
  %4 = alloca i64, align 8
  call void @llvm.lifetime.start.p0(i64 8, ptr nonnull %4) #16
  %5 = icmp ult i64 %1, 10
  br i1 %5, label %27, label %6

6:                                                ; preds = %3
  %7 = getelementptr i8, ptr %0, i64 %1
  %8 = getelementptr i8, ptr %7, i64 -10
  %9 = getelementptr i8, ptr %7, i64 -9
  %10 = load i8, ptr %9, align 1, !tbaa !5
  %11 = zext i8 %10 to i16
  %12 = shl nuw i16 %11, 8
  %13 = load i8, ptr %8, align 1, !tbaa !5
  %14 = zext i8 %13 to i16
  %15 = or disjoint i16 %12, %14
  %.not = icmp eq ptr %2, null
  br i1 %.not, label %17, label %16

16:                                               ; preds = %6
  store i16 %15, ptr %2, align 2, !tbaa !42
  br label %17

17:                                               ; preds = %16, %6
  %18 = icmp ugt i16 %15, 12
  br i1 %18, label %27, label %19

19:                                               ; preds = %17
  %20 = load i32, ptr getelementptr inbounds nuw (i8, ptr @server, i64 6324), align 4, !tbaa !46
  %.not14 = icmp eq i32 %20, 0
  br i1 %.not14, label %21, label %27

21:                                               ; preds = %19
  %22 = add i64 %1, -8
  %23 = tail call i64 @crc64(i64 noundef 0, ptr noundef nonnull %0, i64 noundef %22) #16
  store i64 %23, ptr %4, align 8, !tbaa !45
  %24 = getelementptr i8, ptr %7, i64 -8
  %bcmp = call i32 @bcmp(ptr noundef nonnull dereferenceable(8) %4, ptr noundef nonnull dereferenceable(8) %24, i64 8)
  %25 = icmp ne i32 %bcmp, 0
  %26 = sext i1 %25 to i32
  br label %27

27:                                               ; preds = %19, %17, %3, %21
  %.0 = phi i32 [ %26, %21 ], [ -1, %3 ], [ -1, %17 ], [ 0, %19 ]
  call void @llvm.lifetime.end.p0(i64 8, ptr nonnull %4) #16
  ret i32 %.0
}